target datalayout = "e-m:e-p270:32:32-p271:32:32-p272:64:64-i64:64-i128:128-f80:128-n8:16:32:64-S128"
target triple = "x86_64-pc-linux-gnu"

%struct.RBasic = type { i64, i64 }

@.str.12 = private unnamed_addr constant [10 x i8] c"../yjit.c\00", align 1
@__func__.rb_iseq_opcode_at_pc = private unnamed_addr constant [21 x i8] c"rb_iseq_opcode_at_pc\00", align 1
@.str.20 = private unnamed_addr constant [42 x i8] c"FL_TEST_RAW((VALUE)iseq, ISEQ_TRANSLATED)\00", align 1

; Function Attrs: inlinehint nounwind sspstrong willreturn memory(read) uwtable
define internal i64 @RB_FL_TEST_RAW(i64 noundef %0, i64 noundef %1) #4 {
  %3 = alloca i64, align 8
  %4 = alloca i64, align 8
  store i64 %0, ptr %3, align 8, !tbaa !13
  store i64 %1, ptr %4, align 8, !tbaa !13
  %5 = load i64, ptr %3, align 8, !tbaa !13
  %6 = inttoptr i64 %5 to ptr
  %7 = getelementptr inbounds nuw %struct.RBasic, ptr %6, i32 0, i32 0
  %8 = load i64, ptr %7, align 8, !tbaa !107
  %9 = load i64, ptr %4, align 8, !tbaa !13
  %10 = and i64 %8, %9
  ret i64 %10
}

; Function Attrs: nounwind sspstrong uwtable
define hidden i32 @rb_iseq_opcode_at_pc(ptr noundef %0, ptr noundef %1) #0 {
  %3 = alloca ptr, align 8
  %4 = alloca ptr, align 8
  %5 = alloca i64, align 8
  store ptr %0, ptr %3, align 8, !tbaa !87
  store ptr %1, ptr %4, align 8, !tbaa !16
  %6 = load ptr, ptr %3, align 8, !tbaa !87
  %7 = ptrtoint ptr %6 to i64
  %8 = call i64 @RB_FL_TEST_RAW(i64 noundef %7, i64 noundef 524288) #25
  %9 = icmp ne i64 %8, 0
  %10 = xor i1 %9, true
  %11 = xor i1 %10, true
  %12 = zext i1 %11 to i32
  %13 = sext i32 %12 to i64
  %14 = call i64 @llvm.expect.i64(i64 %13, i64 1)
  %15 = icmp ne i64 %14, 0
  br i1 %15, label %16, label %17

16:                                               ; preds = %2
  br label %19

17:                                               ; preds = %2
  call void @rb_assert_failure(ptr noundef @.str.12, i32 noundef 456, ptr noundef @__func__.rb_iseq_opcode_at_pc, ptr noundef @.str.20) #24
  unreachable

18:                                               ; No predecessors!
  br label %19

19:                                               ; preds = %18, %16
  call void @llvm.lifetime.start.p0(i64 8, ptr %5) #5
  %20 = load ptr, ptr %4, align 8, !tbaa !16
  %21 = load i64, ptr %20, align 8, !tbaa !13
  store i64 %21, ptr %5, align 8, !tbaa !13
  %22 = load i64, ptr %5, align 8, !tbaa !13
  %23 = inttoptr i64 %22 to ptr
  %24 = call i32 @rb_vm_insn_addr2opcode(ptr noundef %23)
  call void @llvm.lifetime.end.p0(i64 8, ptr %5) #5
  ret i32 %24
}