; Function Attrs: nounwind sspstrong uwtable
define hidden i32 @rb_iseq_opcode_at_pc(ptr noundef readonly captures(none) %0, ptr noundef readonly captures(none) %1) local_unnamed_addr #0 {
  %3 = load i64, ptr %0, align 8, !tbaa !11
  %4 = and i64 %3, 524288
  %.not = icmp eq i64 %4, 0
  br i1 %.not, label %5, label %6, !prof !113

5:                                                ; preds = %2
  tail call void @rb_assert_failure(ptr noundef nonnull @.str.12, i32 noundef 456, ptr noundef nonnull @__func__.rb_iseq_opcode_at_pc, ptr noundef nonnull @.str.20) #24
  unreachable

6:                                                ; preds = %2
  %7 = load i64, ptr %1, align 8, !tbaa !15
  %8 = inttoptr i64 %7 to ptr
  %9 = tail call i32 @rb_vm_insn_addr2opcode(ptr noundef %8) #5
  ret i32 %9
}